target datalayout = "e-m:e-p270:32:32-p271:32:32-p272:64:64-i64:64-i128:128-f80:128-n8:16:32:64-S128"
target triple = "x86_64-pc-linux-gnu"

%"struct.Type::TypeInfo" = type { i32, i8, ptr, i8, i32, i32 }
%class.GrowableArray = type { %class.GrowableArrayWithAllocator, %class.GrowableArrayMetadata }
%class.GrowableArrayWithAllocator = type { %class.GrowableArrayView }
%class.GrowableArrayView = type { %class.GrowableArrayBase, ptr }
%class.GrowableArrayBase = type { i32, i32 }
%class.GrowableArrayMetadata = type { i64 }
%class.VectorSet = type { i32, ptr, i32, ptr }
%class.VTransformNode = type { ptr, i32, i32, %class.GrowableArray, %class.GrowableArray }
%class.GrowableArrayView.2 = type { %class.GrowableArrayBase, ptr }
%class.VTransformApplyResult = type { ptr, i32, i32 }
%class.PhaseValues = type { %class.PhaseTransform, i8, ptr, ptr, [137 x ptr], [137 x ptr], [20 x ptr] }
%class.PhaseTransform = type { ptr, %class.Phase }
%class.Phase = type { i32, ptr }
%class.VLoopAnalyzer = type { ptr, %class.Arena, i8, %class.VLoopReductions, %class.VLoopMemorySlices, %class.VLoopBody, %class.VLoopTypes, %class.VLoopVPointers, %class.VLoopDependencyGraph }
%class.Arena = type { i8, i8, i64, ptr, ptr, ptr, ptr }
%class.VLoopReductions = type { ptr, %class.VectorSet }
%class.VLoopMemorySlices = type { ptr, %class.GrowableArray.3, %class.GrowableArray.6 }
%class.GrowableArray.3 = type { %class.GrowableArrayWithAllocator.4, %class.GrowableArrayMetadata }
%class.GrowableArrayWithAllocator.4 = type { %class.GrowableArrayView.5 }
%class.GrowableArrayView.5 = type { %class.GrowableArrayBase, ptr }
%class.GrowableArray.6 = type { %class.GrowableArrayWithAllocator.7, %class.GrowableArrayMetadata }
%class.GrowableArrayWithAllocator.7 = type { %class.GrowableArrayView.8 }
%class.GrowableArrayView.8 = type { %class.GrowableArrayBase, ptr }
%class.VLoopBody = type { ptr, %class.GrowableArray.0, ptr }
%class.GrowableArray.0 = type { %class.GrowableArrayWithAllocator.1, %class.GrowableArrayMetadata }
%class.GrowableArrayWithAllocator.1 = type { %class.GrowableArrayView.2 }
%class.VLoopTypes = type { ptr, ptr, %class.GrowableArray.9 }
%class.GrowableArray.9 = type { %class.GrowableArrayWithAllocator.10, %class.GrowableArrayMetadata }
%class.GrowableArrayWithAllocator.10 = type { %class.GrowableArrayView.11 }
%class.GrowableArrayView.11 = type { %class.GrowableArrayBase, ptr }
%class.VLoopVPointers = type { ptr, ptr, ptr, ptr, i32, %class.GrowableArray.12 }
%class.GrowableArray.12 = type { %class.GrowableArrayWithAllocator.13, %class.GrowableArrayMetadata }
%class.GrowableArrayWithAllocator.13 = type { %class.GrowableArrayView.14 }
%class.GrowableArrayView.14 = type { %class.GrowableArrayBase, ptr }
%class.VLoopDependencyGraph = type { ptr, ptr, ptr, ptr, ptr, %class.GrowableArray.15, %class.GrowableArray.12 }
%class.GrowableArray.15 = type { %class.GrowableArrayWithAllocator.16, %class.GrowableArrayMetadata }
%class.GrowableArrayWithAllocator.16 = type { %class.GrowableArrayView.17 }
%class.GrowableArrayView.17 = type { %class.GrowableArrayBase, ptr }
%class.VLoop = type { ptr, ptr, i8, ptr, ptr, ptr, ptr }
%class.PhaseIdealLoop = type <{ %class.PhaseTransform, %class.Node_List, ptr, ptr, ptr, i32, [4 x i8], ptr, i8, [7 x i8], %class.Node_List, %class.Node_List, %class.GrowableArray.18, i32, i32, ptr, ptr, ptr, i32, i8, [3 x i8], i32, i8, [3 x i8] }>
%class.Node_List = type <{ %class.Node_Array, i32, [4 x i8] }>
%class.Node_Array = type { ptr, i32, ptr }
%class.GrowableArray.18 = type { %class.GrowableArrayWithAllocator.19, %class.GrowableArrayMetadata }
%class.GrowableArrayWithAllocator.19 = type { %class.GrowableArrayView.20 }
%class.GrowableArrayView.20 = type { %class.GrowableArrayBase, ptr }
%class.VTransformVectorNode = type { %class.VTransformNode, %class.GrowableArray.0 }
%class.TypeVect = type <{ %class.Type.base, [4 x i8], ptr, i32, [4 x i8] }>
%class.Type.base = type <{ ptr, ptr, i32 }>
%class.Type = type <{ ptr, ptr, i32, [4 x i8] }>

@_type2aelembytes = external global [20 x i32], align 16
@_ZN4Type10_type_infoE = external global [0 x %"struct.Type::TypeInfo"], align 8

; Function Attrs: mustprogress nounwind uwtable
define linkonce_odr hidden noundef zeroext i1 @_ZN11PhaseValues11hash_deleteEP4Node(ptr noundef nonnull align 8 dereferenceable(2400) %0, ptr noundef %1) #1 comdat align 2 {
  %3 = alloca ptr, align 8
  %4 = alloca ptr, align 8
  store ptr %0, ptr %3, align 8
  store ptr %1, ptr %4, align 8
  %5 = load ptr, ptr %3, align 8
  %6 = getelementptr inbounds %class.PhaseValues, ptr %5, i32 0, i32 2
  %7 = load ptr, ptr %6, align 8
  %8 = load ptr, ptr %4, align 8
  %9 = call noundef zeroext i1 @_ZN8NodeHash11hash_deleteEPK4Node(ptr noundef nonnull align 8 dereferenceable(40) %7, ptr noundef %8)
  ret i1 %9
}

; Function Attrs: mustprogress nounwind uwtable
define linkonce_odr hidden noundef nonnull align 8 dereferenceable(8) ptr @_ZNK17GrowableArrayViewIP14VTransformNodeE2atEi(ptr noundef nonnull align 8 dereferenceable(16) %0, i32 noundef %1) #1 comdat align 2 {
  %3 = alloca ptr, align 8
  %4 = alloca i32, align 4
  store ptr %0, ptr %3, align 8
  store i32 %1, ptr %4, align 4
  %5 = load ptr, ptr %3, align 8
  %6 = getelementptr inbounds %class.GrowableArrayView, ptr %5, i32 0, i32 1
  %7 = load ptr, ptr %6, align 8
  %8 = load i32, ptr %4, align 4
  %9 = sext i32 %8 to i64
  %10 = getelementptr inbounds ptr, ptr %7, i64 %9
  ret ptr %10
}

; Function Attrs: mustprogress nounwind uwtable
define linkonce_odr hidden void @_ZN21VTransformApplyResultC2EP4Nodejj(ptr noundef nonnull align 8 dereferenceable(16) %0, ptr noundef %1, i32 noundef %2, i32 noundef %3) unnamed_addr #1 comdat align 2 {
  %5 = alloca ptr, align 8
  %6 = alloca ptr, align 8
  %7 = alloca i32, align 4
  %8 = alloca i32, align 4
  store ptr %0, ptr %5, align 8
  store ptr %1, ptr %6, align 8
  store i32 %2, ptr %7, align 4
  store i32 %3, ptr %8, align 4
  %9 = load ptr, ptr %5, align 8
  %10 = getelementptr inbounds %class.VTransformApplyResult, ptr %9, i32 0, i32 0
  %11 = load ptr, ptr %6, align 8
  store ptr %11, ptr %10, align 8
  %12 = getelementptr inbounds %class.VTransformApplyResult, ptr %9, i32 0, i32 1
  %13 = load i32, ptr %7, align 4
  store i32 %13, ptr %12, align 8
  %14 = getelementptr inbounds %class.VTransformApplyResult, ptr %9, i32 0, i32 2
  %15 = load i32, ptr %8, align 4
  store i32 %15, ptr %14, align 4
  ret void
}

; Function Attrs: mustprogress nounwind uwtable
define linkonce_odr hidden noundef i32 @_Z15type2aelembytes9BasicTypeb(i8 noundef zeroext %0, i1 noundef zeroext %1) #1 comdat {
  %3 = alloca i8, align 1
  %4 = alloca i8, align 1
  store i8 %0, ptr %3, align 1
  %5 = zext i1 %1 to i8
  store i8 %5, ptr %4, align 1
  %6 = load i8, ptr %3, align 1
  %7 = zext i8 %6 to i64
  %8 = getelementptr inbounds [20 x i32], ptr @_type2aelembytes, i64 0, i64 %7
  %9 = load i32, ptr %8, align 4
  ret i32 %9
}

; Function Attrs: mustprogress nounwind uwtable
define linkonce_odr hidden noundef zeroext i8 @_ZNK8TypeVect18element_basic_typeEv(ptr noundef nonnull align 8 dereferenceable(36) %0) #1 comdat align 2 {
  %2 = alloca ptr, align 8
  store ptr %0, ptr %2, align 8
  %3 = load ptr, ptr %2, align 8
  %4 = getelementptr inbounds %class.TypeVect, ptr %3, i32 0, i32 2
  %5 = load ptr, ptr %4, align 8
  %6 = call noundef zeroext i8 @_ZNK4Type24array_element_basic_typeEv(ptr noundef nonnull align 8 dereferenceable(20) %5)
  ret i8 %6
}

; Function Attrs: mustprogress nounwind uwtable
define linkonce_odr hidden void @_ZN12PhaseIterGVN12replace_nodeEP4NodeS1_(ptr noundef nonnull align 8 dereferenceable(2416) %0, ptr noundef %1, ptr noundef %2) #1 comdat align 2 {
  %4 = alloca ptr, align 8
  %5 = alloca ptr, align 8
  %6 = alloca ptr, align 8
  store ptr %0, ptr %4, align 8
  store ptr %1, ptr %5, align 8
  store ptr %2, ptr %6, align 8
  %7 = load ptr, ptr %4, align 8
  %8 = load ptr, ptr %5, align 8
  call void @_ZN12PhaseIterGVN21add_users_to_worklistEP4Node(ptr noundef nonnull align 8 dereferenceable(2416) %7, ptr noundef %8)
  %9 = load ptr, ptr %5, align 8
  %10 = call noundef zeroext i1 @_ZN11PhaseValues11hash_deleteEP4Node(ptr noundef nonnull align 8 dereferenceable(2400) %7, ptr noundef %9)
  %11 = load ptr, ptr %5, align 8
  %12 = load ptr, ptr %6, align 8
  call void @_ZN12PhaseIterGVN12subsume_nodeEP4NodeS1_(ptr noundef nonnull align 8 dereferenceable(2416) %7, ptr noundef %11, ptr noundef %12)
  ret void
}

; Function Attrs: mustprogress nounwind uwtable
define linkonce_odr hidden noundef nonnull align 8 dereferenceable(2416) ptr @_ZNK14PhaseIdealLoop4igvnEv(ptr noundef nonnull align 8 dereferenceable(237) %0) #1 comdat align 2 {
  %2 = alloca ptr, align 8
  store ptr %0, ptr %2, align 8
  %3 = load ptr, ptr %2, align 8
  %4 = getelementptr inbounds %class.PhaseIdealLoop, ptr %3, i32 0, i32 2
  %5 = load ptr, ptr %4, align 8
  ret ptr %5
}

; Function Attrs: mustprogress nounwind uwtable
define linkonce_odr hidden noundef ptr @_ZNK5VLoop5phaseEv(ptr noundef nonnull align 8 dereferenceable(56) %0) #1 comdat align 2 {
  %2 = alloca ptr, align 8
  store ptr %0, ptr %2, align 8
  %3 = load ptr, ptr %2, align 8
  %4 = getelementptr inbounds %class.VLoop, ptr %3, i32 0, i32 0
  %5 = load ptr, ptr %4, align 8
  ret ptr %5
}

; Function Attrs: mustprogress nounwind uwtable
define linkonce_odr hidden noundef nonnull align 8 dereferenceable(56) ptr @_ZNK13VLoopAnalyzer5vloopEv(ptr noundef nonnull align 8 dereferenceable(392) %0) #1 comdat align 2 {
  %2 = alloca ptr, align 8
  store ptr %0, ptr %2, align 8
  %3 = load ptr, ptr %2, align 8
  %4 = getelementptr inbounds %class.VLoopAnalyzer, ptr %3, i32 0, i32 0
  %5 = load ptr, ptr %4, align 8
  ret ptr %5
}

; Function Attrs: mustprogress nounwind uwtable
define linkonce_odr hidden noundef ptr @_ZNK14VTransformNode2inEi(ptr noundef nonnull align 8 dereferenceable(64) %0, i32 noundef %1) #1 comdat align 2 {
  %3 = alloca ptr, align 8
  %4 = alloca i32, align 4
  store ptr %0, ptr %3, align 8
  store i32 %1, ptr %4, align 4
  %5 = load ptr, ptr %3, align 8
  %6 = getelementptr inbounds %class.VTransformNode, ptr %5, i32 0, i32 3
  %7 = load i32, ptr %4, align 4
  %8 = call noundef nonnull align 8 dereferenceable(8) ptr @_ZNK17GrowableArrayViewIP14VTransformNodeE2atEi(ptr noundef nonnull align 8 dereferenceable(16) %6, i32 noundef %7)
  %9 = load ptr, ptr %8, align 8
  ret ptr %9
}

; Function Attrs: mustprogress nounwind uwtable
define linkonce_odr hidden { ptr, i64 } @_ZN21VTransformApplyResult11make_vectorEP4Nodejj(ptr noundef %0, i32 noundef %1, i32 noundef %2) #1 comdat align 2 {
  %4 = alloca %class.VTransformApplyResult, align 8
  %5 = alloca ptr, align 8
  %6 = alloca i32, align 4
  %7 = alloca i32, align 4
  store ptr %0, ptr %5, align 8
  store i32 %1, ptr %6, align 4
  store i32 %2, ptr %7, align 4
  %8 = load ptr, ptr %5, align 8
  %9 = load i32, ptr %6, align 4
  %10 = load i32, ptr %7, align 4
  call void @_ZN21VTransformApplyResultC2EP4Nodejj(ptr noundef nonnull align 8 dereferenceable(16) %4, ptr noundef %8, i32 noundef %9, i32 noundef %10)
  %11 = load { ptr, i64 }, ptr %4, align 8
  ret { ptr, i64 } %11
}

; Function Attrs: mustprogress nounwind uwtable
define linkonce_odr hidden noundef i32 @_ZNK8TypeVect15length_in_bytesEv(ptr noundef nonnull align 8 dereferenceable(36) %0) #1 comdat align 2 {
  %2 = alloca ptr, align 8
  store ptr %0, ptr %2, align 8
  %3 = load ptr, ptr %2, align 8
  %4 = getelementptr inbounds %class.TypeVect, ptr %3, i32 0, i32 3
  %5 = load i32, ptr %4, align 8
  %6 = call noundef zeroext i8 @_ZNK8TypeVect18element_basic_typeEv(ptr noundef nonnull align 8 dereferenceable(36) %3)
  %7 = call noundef i32 @_Z15type2aelembytes9BasicTypeb(i8 noundef zeroext %6, i1 noundef zeroext false)
  %8 = mul i32 %5, %7
  ret i32 %8
}

; Function Attrs: mustprogress nounwind uwtable
define hidden void @_ZNK20VTransformVectorNode61register_new_node_from_vectorization_and_replace_scalar_nodesERK13VLoopAnalyzerP4Node(ptr noundef nonnull align 8 dereferenceable(88) %0, ptr noundef nonnull align 8 dereferenceable(392) %1, ptr noundef %2) #1 align 2 {
  %4 = alloca ptr, align 8
  %5 = alloca ptr, align 8
  %6 = alloca ptr, align 8
  %7 = alloca ptr, align 8
  %8 = alloca ptr, align 8
  %9 = alloca i32, align 4
  %10 = alloca ptr, align 8
  store ptr %0, ptr %4, align 8
  store ptr %1, ptr %5, align 8
  store ptr %2, ptr %6, align 8
  %11 = load ptr, ptr %4, align 8
  %12 = load ptr, ptr %5, align 8
  %13 = call noundef nonnull align 8 dereferenceable(56) ptr @_ZNK13VLoopAnalyzer5vloopEv(ptr noundef nonnull align 8 dereferenceable(392) %12)
  %14 = call noundef ptr @_ZNK5VLoop5phaseEv(ptr noundef nonnull align 8 dereferenceable(56) %13)
  store ptr %14, ptr %7, align 8
  %15 = call noundef nonnull align 8 dereferenceable(24) ptr @_ZNK20VTransformVectorNode5nodesEv(ptr noundef nonnull align 8 dereferenceable(88) %11)
  %16 = call noundef nonnull align 8 dereferenceable(8) ptr @_ZNK17GrowableArrayViewIP4NodeE2atEi(ptr noundef nonnull align 8 dereferenceable(16) %15, i32 noundef 0)
  %17 = load ptr, ptr %16, align 8
  store ptr %17, ptr %8, align 8
  %18 = load ptr, ptr %5, align 8
  %19 = load ptr, ptr %6, align 8
  %20 = load ptr, ptr %8, align 8
  call void @_ZNK14VTransformNode36register_new_node_from_vectorizationERK13VLoopAnalyzerP4NodeS4_(ptr noundef nonnull align 8 dereferenceable(64) %11, ptr noundef nonnull align 8 dereferenceable(392) %18, ptr noundef %19, ptr noundef %20)
  store i32 0, ptr %9, align 4
  br label %21

21:                                               ; preds = %35, %3
  %22 = load i32, ptr %9, align 4
  %23 = getelementptr inbounds %class.VTransformVectorNode, ptr %11, i32 0, i32 1
  %24 = call noundef i32 @_ZNK17GrowableArrayBase6lengthEv(ptr noundef nonnull align 4 dereferenceable(8) %23)
  %25 = icmp slt i32 %22, %24
  br i1 %25, label %26, label %38

26:                                               ; preds = %21
  %27 = getelementptr inbounds %class.VTransformVectorNode, ptr %11, i32 0, i32 1
  %28 = load i32, ptr %9, align 4
  %29 = call noundef nonnull align 8 dereferenceable(8) ptr @_ZNK17GrowableArrayViewIP4NodeE2atEi(ptr noundef nonnull align 8 dereferenceable(16) %27, i32 noundef %28)
  %30 = load ptr, ptr %29, align 8
  store ptr %30, ptr %10, align 8
  %31 = load ptr, ptr %7, align 8
  %32 = call noundef nonnull align 8 dereferenceable(2416) ptr @_ZNK14PhaseIdealLoop4igvnEv(ptr noundef nonnull align 8 dereferenceable(237) %31)
  %33 = load ptr, ptr %10, align 8
  %34 = load ptr, ptr %6, align 8
  call void @_ZN12PhaseIterGVN12replace_nodeEP4NodeS1_(ptr noundef nonnull align 8 dereferenceable(2416) %32, ptr noundef %33, ptr noundef %34)
  br label %35

35:                                               ; preds = %26
  %36 = load i32, ptr %9, align 4
  %37 = add nsw i32 %36, 1
  store i32 %37, ptr %9, align 4
  br label %21, !llvm.loop !12

38:                                               ; preds = %21
  ret void
}

; Function Attrs: mustprogress nounwind uwtable
define hidden noundef ptr @_ZNK14VTransformNode22find_transformed_inputEiRK13GrowableArrayIP4NodeE(ptr noundef nonnull align 8 dereferenceable(64) %0, i32 noundef %1, ptr noundef nonnull align 8 dereferenceable(24) %2) #1 align 2 {
  %4 = alloca ptr, align 8
  %5 = alloca i32, align 4
  %6 = alloca ptr, align 8
  %7 = alloca ptr, align 8
  store ptr %0, ptr %4, align 8
  store i32 %1, ptr %5, align 4
  store ptr %2, ptr %6, align 8
  %8 = load ptr, ptr %4, align 8
  %9 = load ptr, ptr %6, align 8
  %10 = load i32, ptr %5, align 4
  %11 = call noundef ptr @_ZNK14VTransformNode2inEi(ptr noundef nonnull align 8 dereferenceable(64) %8, i32 noundef %10)
  %12 = getelementptr inbounds %class.VTransformNode, ptr %11, i32 0, i32 1
  %13 = load i32, ptr %12, align 8
  %14 = call noundef nonnull align 8 dereferenceable(8) ptr @_ZNK17GrowableArrayViewIP4NodeE2atEi(ptr noundef nonnull align 8 dereferenceable(16) %9, i32 noundef %13)
  %15 = load ptr, ptr %14, align 8
  store ptr %15, ptr %7, align 8
  %16 = load ptr, ptr %7, align 8
  ret ptr %16
}

; Function Attrs: mustprogress nounwind uwtable
define linkonce_odr hidden noundef zeroext i8 @_ZNK4Type10basic_typeEv(ptr noundef nonnull align 8 dereferenceable(20) %0) #1 comdat align 2 {
  %2 = alloca ptr, align 8
  store ptr %0, ptr %2, align 8
  %3 = load ptr, ptr %2, align 8
  %4 = getelementptr inbounds %class.Type, ptr %3, i32 0, i32 2
  %5 = load i32, ptr %4, align 8
  %6 = zext i32 %5 to i64
  %7 = getelementptr inbounds [0 x %"struct.Type::TypeInfo"], ptr @_ZN4Type10_type_infoE, i64 0, i64 %6
  %8 = getelementptr inbounds %"struct.Type::TypeInfo", ptr %7, i32 0, i32 1
  %9 = load i8, ptr %8, align 4
  ret i8 %9
}

; Function Attrs: mustprogress nounwind uwtable
define linkonce_odr hidden noundef i32 @_ZNK17GrowableArrayBase6lengthEv(ptr noundef nonnull align 4 dereferenceable(8) %0) #1 comdat align 2 {
  %2 = alloca ptr, align 8
  store ptr %0, ptr %2, align 8
  %3 = load ptr, ptr %2, align 8
  %4 = getelementptr inbounds %class.GrowableArrayBase, ptr %3, i32 0, i32 0
  %5 = load i32, ptr %4, align 4
  ret i32 %5
}

; Function Attrs: mustprogress nounwind uwtable
define linkonce_odr hidden noundef nonnull align 8 dereferenceable(8) ptr @_ZNK17GrowableArrayViewIP4NodeE2atEi(ptr noundef nonnull align 8 dereferenceable(16) %0, i32 noundef %1) #1 comdat align 2 {
  %3 = alloca ptr, align 8
  %4 = alloca i32, align 4
  store ptr %0, ptr %3, align 8
  store i32 %1, ptr %4, align 4
  %5 = load ptr, ptr %3, align 8
  %6 = getelementptr inbounds %class.GrowableArrayView.2, ptr %5, i32 0, i32 1
  %7 = load ptr, ptr %6, align 8
  %8 = load i32, ptr %4, align 4
  %9 = sext i32 %8 to i64
  %10 = getelementptr inbounds ptr, ptr %7, i64 %9
  ret ptr %10
}

; Function Attrs: mustprogress nounwind uwtable
define linkonce_odr hidden noundef nonnull align 8 dereferenceable(24) ptr @_ZNK20VTransformVectorNode5nodesEv(ptr noundef nonnull align 8 dereferenceable(88) %0) #1 comdat align 2 {
  %2 = alloca ptr, align 8
  store ptr %0, ptr %2, align 8
  %3 = load ptr, ptr %2, align 8
  %4 = getelementptr inbounds %class.VTransformVectorNode, ptr %3, i32 0, i32 1
  ret ptr %4
}

; Function Attrs: mustprogress nounwind uwtable
define hidden { ptr, i64 } @_ZNK29VTransformReductionVectorNode5applyERK13VLoopAnalyzerRK13GrowableArrayIP4NodeE(ptr noundef nonnull align 8 dereferenceable(88) %0, ptr noundef nonnull align 8 dereferenceable(392) %1, ptr noundef nonnull align 8 dereferenceable(24) %2) unnamed_addr #1 align 2 {
  %4 = alloca %class.VTransformApplyResult, align 8
  %5 = alloca ptr, align 8
  %6 = alloca ptr, align 8
  %7 = alloca ptr, align 8
  %8 = alloca ptr, align 8
  %9 = alloca i32, align 4
  %10 = alloca i32, align 4
  %11 = alloca i8, align 1
  %12 = alloca ptr, align 8
  %13 = alloca ptr, align 8
  %14 = alloca ptr, align 8
  store ptr %0, ptr %5, align 8
  store ptr %1, ptr %6, align 8
  store ptr %2, ptr %7, align 8
  %15 = load ptr, ptr %5, align 8
  %16 = call noundef nonnull align 8 dereferenceable(24) ptr @_ZNK20VTransformVectorNode5nodesEv(ptr noundef nonnull align 8 dereferenceable(88) %15)
  %17 = call noundef nonnull align 8 dereferenceable(8) ptr @_ZNK17GrowableArrayViewIP4NodeE2atEi(ptr noundef nonnull align 8 dereferenceable(16) %16, i32 noundef 0)
  %18 = load ptr, ptr %17, align 8
  store ptr %18, ptr %8, align 8
  %19 = call noundef nonnull align 8 dereferenceable(24) ptr @_ZNK20VTransformVectorNode5nodesEv(ptr noundef nonnull align 8 dereferenceable(88) %15)
  %20 = call noundef i32 @_ZNK17GrowableArrayBase6lengthEv(ptr noundef nonnull align 4 dereferenceable(8) %19)
  store i32 %20, ptr %9, align 4
  %21 = load ptr, ptr %8, align 8
  %22 = load ptr, ptr %21, align 8
  %23 = getelementptr inbounds ptr, ptr %22, i64 0
  %24 = load ptr, ptr %23, align 8
  %25 = call noundef i32 %24(ptr noundef nonnull align 8 dereferenceable(52) %21)
  store i32 %25, ptr %10, align 4
  %26 = load ptr, ptr %8, align 8
  %27 = load ptr, ptr %26, align 8
  %28 = getelementptr inbounds ptr, ptr %27, i64 5
  %29 = load ptr, ptr %28, align 8
  %30 = call noundef ptr %29(ptr noundef nonnull align 8 dereferenceable(52) %26)
  %31 = call noundef zeroext i8 @_ZNK4Type10basic_typeEv(ptr noundef nonnull align 8 dereferenceable(20) %30)
  store i8 %31, ptr %11, align 1
  %32 = load ptr, ptr %7, align 8
  %33 = call noundef ptr @_ZNK14VTransformNode22find_transformed_inputEiRK13GrowableArrayIP4NodeE(ptr noundef nonnull align 8 dereferenceable(64) %15, i32 noundef 1, ptr noundef nonnull align 8 dereferenceable(24) %32)
  store ptr %33, ptr %12, align 8
  %34 = load ptr, ptr %7, align 8
  %35 = call noundef ptr @_ZNK14VTransformNode22find_transformed_inputEiRK13GrowableArrayIP4NodeE(ptr noundef nonnull align 8 dereferenceable(64) %15, i32 noundef 2, ptr noundef nonnull align 8 dereferenceable(24) %34)
  store ptr %35, ptr %13, align 8
  %36 = load i32, ptr %10, align 4
  %37 = load ptr, ptr %12, align 8
  %38 = load ptr, ptr %13, align 8
  %39 = load i8, ptr %11, align 1
  %40 = call noundef ptr @_ZN13ReductionNode4makeEiP4NodeS1_S1_9BasicTypeb(i32 noundef %36, ptr noundef null, ptr noundef %37, ptr noundef %38, i8 noundef zeroext %39, i1 noundef zeroext true)
  store ptr %40, ptr %14, align 8
  %41 = load ptr, ptr %6, align 8
  %42 = load ptr, ptr %14, align 8
  call void @_ZNK20VTransformVectorNode61register_new_node_from_vectorization_and_replace_scalar_nodesERK13VLoopAnalyzerP4Node(ptr noundef nonnull align 8 dereferenceable(88) %15, ptr noundef nonnull align 8 dereferenceable(392) %41, ptr noundef %42)
  %43 = load ptr, ptr %14, align 8
  %44 = load i32, ptr %9, align 4
  %45 = load ptr, ptr %14, align 8
  %46 = load ptr, ptr %45, align 8
  %47 = getelementptr inbounds ptr, ptr %46, i64 24
  %48 = load ptr, ptr %47, align 8
  %49 = call noundef ptr %48(ptr noundef nonnull align 8 dereferenceable(72) %45)
  %50 = call noundef i32 @_ZNK8TypeVect15length_in_bytesEv(ptr noundef nonnull align 8 dereferenceable(36) %49)
  %51 = call { ptr, i64 } @_ZN21VTransformApplyResult11make_vectorEP4Nodejj(ptr noundef %43, i32 noundef %44, i32 noundef %50)
  %52 = getelementptr inbounds { ptr, i64 }, ptr %4, i32 0, i32 0
  %53 = extractvalue { ptr, i64 } %51, 0
  store ptr %53, ptr %52, align 8
  %54 = getelementptr inbounds { ptr, i64 }, ptr %4, i32 0, i32 1
  %55 = extractvalue { ptr, i64 } %51, 1
  store i64 %55, ptr %54, align 8
  %56 = load { ptr, i64 }, ptr %4, align 8
  ret { ptr, i64 } %56
}